; Function Attrs: nounwind uwtable
define ptr @l___private_Lean_Meta_Tactic_Grind_Beta_0__Lean_Meta_Grind_isPropagateBetaTarget_go___lambda__1(ptr noundef %0, ptr noundef readnone captures(none) %1, ptr noundef %2, ptr noundef %3, ptr noundef %4, ptr noundef %5, ptr noundef %6, ptr noundef %7, ptr noundef %8, ptr noundef %9, ptr noundef %10) local_unnamed_addr #0 {
  %12 = ptrtoint ptr %0 to i64
  %13 = and i64 %12, 1
  %.not.i = icmp eq i64 %13, 0
  br i1 %.not.i, label %17, label %14

14:                                               ; preds = %11
  %15 = lshr i64 %12, 1
  %16 = trunc i64 %15 to i32
  br label %lean_obj_tag.exit

17:                                               ; preds = %11
  %18 = getelementptr i8, ptr %0, i64 4
  %.val.i = load i32, ptr %18, align 4
  %19 = lshr i32 %.val.i, 24
  br label %lean_obj_tag.exit

lean_obj_tag.exit:                                ; preds = %14, %17
  %.0.i = phi i32 [ %16, %14 ], [ %19, %17 ]
  %20 = icmp eq i32 %.0.i, 5
  br i1 %20, label %21, label %25

21:                                               ; preds = %lean_obj_tag.exit
  %22 = getelementptr inbounds nuw i8, ptr %0, i64 8
  %23 = load ptr, ptr %22, align 8, !tbaa !4
  %24 = tail call ptr @l___private_Lean_Meta_Tactic_Grind_Beta_0__Lean_Meta_Grind_isPropagateBetaTarget_go(ptr noundef %23, ptr noundef %2, ptr noundef %3, ptr noundef %4, ptr noundef %5, ptr noundef %6, ptr noundef %7, ptr noundef %8, ptr noundef %9, ptr noundef %10)
  br label %32

25:                                               ; preds = %lean_obj_tag.exit
  tail call void @lean_inc_heartbeat() #5
  %26 = tail call noalias ptr @mi_malloc_small(i64 noundef 24) #5
  %27 = icmp eq ptr %26, null
  br i1 %27, label %28, label %lean_alloc_ctor.exit

28:                                               ; preds = %25
  tail call void @lean_internal_panic_out_of_memory() #6
  unreachable

lean_alloc_ctor.exit:                             ; preds = %25
  %29 = getelementptr inbounds nuw i8, ptr %26, i64 4
  store i32 1, ptr %26, align 4, !tbaa !8
  store i32 131096, ptr %29, align 4
  %30 = getelementptr inbounds nuw i8, ptr %26, i64 8
  store ptr inttoptr (i64 1 to ptr), ptr %30, align 8, !tbaa !4
  %31 = getelementptr inbounds nuw i8, ptr %26, i64 16
  store ptr %10, ptr %31, align 8, !tbaa !4
  br label %32

32:                                               ; preds = %lean_alloc_ctor.exit, %21
  %.0 = phi ptr [ %24, %21 ], [ %26, %lean_alloc_ctor.exit ]
  ret ptr %.0
}